target datalayout = "e-m:e-p270:32:32-p271:32:32-p272:64:64-i64:64-i128:128-f80:128-n8:16:32:64-S128"
target triple = "x86_64-pc-linux-gnu"

%"class.llvm::SmallVectorBase" = type { ptr, i32, i32 }
%"class.llvm::DenseSet.46" = type { %"class.llvm::detail::DenseSetImpl.47" }
%"class.llvm::detail::DenseSetImpl.47" = type { %"class.llvm::DenseMap.48" }
%"class.llvm::DenseMap.48" = type <{ ptr, i32, i32, i32, [4 x i8] }>
%"class.llvm::SmallVectorImpl.52" = type { %"class.llvm::SmallVectorTemplateBase.53" }
%"class.llvm::SmallVectorTemplateBase.53" = type { %"class.llvm::SmallVectorTemplateCommon.54" }
%"class.llvm::SmallVectorTemplateCommon.54" = type { %"class.llvm::SmallVectorBase" }
%"struct.llvm::BooleanState.base" = type { %"struct.llvm::IntegerStateBase.base" }
%"struct.llvm::IntegerStateBase.base" = type <{ %"struct.llvm::AbstractState", i8, i8 }>
%"struct.llvm::AbstractState" = type { ptr }
%"class.llvm::DenseSet.155" = type { %"class.llvm::detail::DenseSetImpl.156" }
%"class.llvm::detail::DenseSetImpl.156" = type { %"class.llvm::DenseMap.157" }
%"class.llvm::DenseMap.157" = type <{ ptr, i32, i32, i32, [4 x i8] }>
%"class.llvm::SmallVectorImpl.161" = type { %"class.llvm::SmallVectorTemplateBase.162" }
%"class.llvm::SmallVectorTemplateBase.162" = type { %"class.llvm::SmallVectorTemplateCommon.163" }
%"class.llvm::SmallVectorTemplateCommon.163" = type { %"class.llvm::SmallVectorBase" }
%"class.llvm::SetVector.281" = type { %"class.llvm::DenseSet.46", %"class.llvm::SmallVector.282" }
%"class.llvm::SmallVector.282" = type { %"class.llvm::SmallVectorImpl.52" }
%"class.llvm::SmallVectorImpl.234" = type { %"class.llvm::SmallVectorTemplateBase.235" }
%"class.llvm::SmallVectorTemplateBase.235" = type { %"class.llvm::SmallVectorTemplateCommon.236" }
%"class.llvm::SmallVectorTemplateCommon.236" = type { %"class.llvm::SmallVectorBase.237" }
%"class.llvm::SmallVectorBase.237" = type { ptr, i64, i64 }
%"class.llvm::SmallVectorImpl.604" = type { %"class.llvm::SmallVectorTemplateBase.605" }
%"class.llvm::SmallVectorTemplateBase.605" = type { %"class.llvm::SmallVectorTemplateCommon.606" }
%"class.llvm::SmallVectorTemplateCommon.606" = type { %"class.llvm::SmallVectorBase" }
%"struct.(anonymous namespace)::BooleanStateWithSetVector" = type { %"struct.llvm::BooleanState.base", %"class.llvm::SetVector.935" }
%"class.llvm::SetVector.935" = type { %"class.llvm::DenseSet.155", %"class.llvm::SmallVector.936" }
%"class.llvm::SmallVector.936" = type { %"class.llvm::SmallVectorImpl.161" }
%"struct.(anonymous namespace)::BooleanStateWithSetVector.938" = type { %"struct.llvm::BooleanState.base", %"class.llvm::SetVector.935" }
%"struct.(anonymous namespace)::BooleanStateWithSetVector.939" = type { %"struct.llvm::BooleanState.base", %"class.llvm::SetVector.940" }
%"class.llvm::SetVector.940" = type { %"class.llvm::DenseSet.941", %"class.llvm::SmallVector.946" }
%"class.llvm::DenseSet.941" = type { %"class.llvm::detail::DenseSetImpl.942" }
%"class.llvm::detail::DenseSetImpl.942" = type { %"class.llvm::DenseMap.943" }
%"class.llvm::DenseMap.943" = type <{ ptr, i32, i32, i32, [4 x i8] }>
%"class.llvm::SmallVector.946" = type { %"class.llvm::SmallVectorImpl.604" }
%"struct.(anonymous namespace)::BooleanStateWithSetVector.948" = type { %"struct.llvm::BooleanState.base", %"class.llvm::SetVector.281" }
%"struct.(anonymous namespace)::BooleanStateWithSetVector.949" = type { %"struct.llvm::BooleanState.base", %"class.llvm::SetVector.950" }
%"class.llvm::SetVector.950" = type { %"class.llvm::DenseSet.951", %"class.llvm::SmallVector.956" }
%"class.llvm::DenseSet.951" = type { %"class.llvm::detail::DenseSetImpl.952" }
%"class.llvm::detail::DenseSetImpl.952" = type { %"class.llvm::DenseMap.953" }
%"class.llvm::DenseMap.953" = type <{ ptr, i32, i32, i32, [4 x i8] }>
%"class.llvm::SmallVector.956" = type { %"class.llvm::SmallVectorImpl.234" }
%"struct.(anonymous namespace)::KernelInfoState" = type <{ %"struct.llvm::AbstractState", i8, [7 x i8], %"struct.(anonymous namespace)::BooleanStateWithSetVector", %"struct.(anonymous namespace)::BooleanStateWithSetVector.938", %"struct.(anonymous namespace)::BooleanStateWithSetVector.939", ptr, ptr, ptr, i8, [7 x i8], %"struct.(anonymous namespace)::BooleanStateWithSetVector.948", %"struct.(anonymous namespace)::BooleanStateWithSetVector.949", i8, [7 x i8] }>
%class.anon.990 = type { ptr, ptr }
%"class.std::optional.1004" = type { %"struct.std::_Optional_base.1005" }
%"struct.std::_Optional_base.1005" = type { %"struct.std::_Optional_payload.1007" }
%"struct.std::_Optional_payload.1007" = type { %"struct.std::_Optional_payload_base.base.1009", [7 x i8] }
%"struct.std::_Optional_payload_base.base.1009" = type <{ %"union.std::_Optional_payload_base<llvm::Constant *>::_Storage", i8 }>
%"union.std::_Optional_payload_base<llvm::Constant *>::_Storage" = type { ptr }
%"struct.std::_Optional_payload_base.1008" = type <{ %"union.std::_Optional_payload_base<llvm::Constant *>::_Storage", i8, [7 x i8] }>

; Function Attrs: mustprogress nounwind uwtable
define linkonce_odr hidden void @_ZNSt22_Optional_payload_baseIPN4llvm8ConstantEE8_StorageIS2_Lb1EEC2IJRPNS0_14ConstantStructEEEESt10in_place_tDpOT_(ptr noundef nonnull align 8 dereferenceable(8) %0, ptr noundef nonnull align 8 dereferenceable(8) %1) unnamed_addr #1 comdat align 2 {
  %3 = alloca ptr, align 8
  %4 = alloca ptr, align 8
  store ptr %0, ptr %3, align 8
  store ptr %1, ptr %4, align 8
  %5 = load ptr, ptr %3, align 8
  %6 = load ptr, ptr %4, align 8
  %7 = load ptr, ptr %6, align 8
  store ptr %7, ptr %5, align 8
  ret void
}

; Function Attrs: mustprogress nounwind uwtable
define linkonce_odr hidden void @_ZNSt22_Optional_payload_baseIPN4llvm8ConstantEE8_StorageIS2_Lb1EEC2IJDnEEESt10in_place_tDpOT_(ptr noundef nonnull align 8 dereferenceable(8) %0, ptr noundef nonnull align 8 dereferenceable(8) %1) unnamed_addr #1 comdat align 2 {
  %3 = alloca ptr, align 8
  %4 = alloca ptr, align 8
  store ptr %0, ptr %3, align 8
  store ptr %1, ptr %4, align 8
  %5 = load ptr, ptr %3, align 8
  store ptr null, ptr %5, align 8
  ret void
}

; Function Attrs: mustprogress nounwind uwtable
define linkonce_odr hidden void @_ZNSt22_Optional_payload_baseIPN4llvm8ConstantEEC2IJRPNS0_14ConstantStructEEEESt10in_place_tDpOT_(ptr noundef nonnull align 8 dereferenceable(9) %0, ptr noundef nonnull align 8 dereferenceable(8) %1) unnamed_addr #1 comdat align 2 {
  %3 = alloca ptr, align 8
  %4 = alloca ptr, align 8
  store ptr %0, ptr %3, align 8
  store ptr %1, ptr %4, align 8
  %5 = load ptr, ptr %3, align 8
  %6 = getelementptr inbounds nuw %"struct.std::_Optional_payload_base.1008", ptr %5, i32 0, i32 0
  %7 = load ptr, ptr %4, align 8
  call void @_ZNSt22_Optional_payload_baseIPN4llvm8ConstantEE8_StorageIS2_Lb1EEC2IJRPNS0_14ConstantStructEEEESt10in_place_tDpOT_(ptr noundef nonnull align 8 dereferenceable(8) %6, ptr noundef nonnull align 8 dereferenceable(8) %7)
  %8 = getelementptr inbounds nuw %"struct.std::_Optional_payload_base.1008", ptr %5, i32 0, i32 1
  store i8 1, ptr %8, align 8
  ret void
}

; Function Attrs: mustprogress nounwind uwtable
define linkonce_odr hidden void @_ZNSt22_Optional_payload_baseIPN4llvm8ConstantEEC2IJDnEEESt10in_place_tDpOT_(ptr noundef nonnull align 8 dereferenceable(9) %0, ptr noundef nonnull align 8 dereferenceable(8) %1) unnamed_addr #1 comdat align 2 {
  %3 = alloca ptr, align 8
  %4 = alloca ptr, align 8
  store ptr %0, ptr %3, align 8
  store ptr %1, ptr %4, align 8
  %5 = load ptr, ptr %3, align 8
  %6 = getelementptr inbounds nuw %"struct.std::_Optional_payload_base.1008", ptr %5, i32 0, i32 0
  %7 = load ptr, ptr %4, align 8
  call void @_ZNSt22_Optional_payload_baseIPN4llvm8ConstantEE8_StorageIS2_Lb1EEC2IJDnEEESt10in_place_tDpOT_(ptr noundef nonnull align 8 dereferenceable(8) %6, ptr noundef nonnull align 8 dereferenceable(8) %7)
  %8 = getelementptr inbounds nuw %"struct.std::_Optional_payload_base.1008", ptr %5, i32 0, i32 1
  store i8 1, ptr %8, align 8
  ret void
}

; Function Attrs: mustprogress nounwind uwtable
define linkonce_odr hidden void @_ZNSt17_Optional_payloadIPN4llvm8ConstantELb1ELb1ELb1EECI2St22_Optional_payload_baseIS2_EIJRPNS0_14ConstantStructEEEESt10in_place_tDpOT_(ptr noundef nonnull align 8 dereferenceable(9) %0, ptr noundef nonnull align 8 dereferenceable(8) %1) unnamed_addr #1 comdat align 2 {
  %3 = alloca ptr, align 8
  %4 = alloca ptr, align 8
  store ptr %0, ptr %3, align 8
  store ptr %1, ptr %4, align 8
  %5 = load ptr, ptr %3, align 8
  %6 = load ptr, ptr %4, align 8
  call void @_ZNSt22_Optional_payload_baseIPN4llvm8ConstantEEC2IJRPNS0_14ConstantStructEEEESt10in_place_tDpOT_(ptr noundef nonnull align 8 dereferenceable(9) %5, ptr noundef nonnull align 8 dereferenceable(8) %6)
  ret void
}

; Function Attrs: mustprogress nounwind uwtable
define linkonce_odr hidden void @_ZNSt17_Optional_payloadIPN4llvm8ConstantELb1ELb1ELb1EECI2St22_Optional_payload_baseIS2_EIJDnEEESt10in_place_tDpOT_(ptr noundef nonnull align 8 dereferenceable(9) %0, ptr noundef nonnull align 8 dereferenceable(8) %1) unnamed_addr #1 comdat align 2 {
  %3 = alloca ptr, align 8
  %4 = alloca ptr, align 8
  store ptr %0, ptr %3, align 8
  store ptr %1, ptr %4, align 8
  %5 = load ptr, ptr %3, align 8
  %6 = load ptr, ptr %4, align 8
  call void @_ZNSt22_Optional_payload_baseIPN4llvm8ConstantEEC2IJDnEEESt10in_place_tDpOT_(ptr noundef nonnull align 8 dereferenceable(9) %5, ptr noundef nonnull align 8 dereferenceable(8) %6)
  ret void
}

; Function Attrs: mustprogress nounwind uwtable
define linkonce_odr hidden void @_ZNSt14_Optional_baseIPN4llvm8ConstantELb1ELb1EEC2IJRPNS0_14ConstantStructEETnNSt9enable_ifIX18is_constructible_vIS2_DpT_EEbE4typeELb0EEESt10in_place_tDpOS9_(ptr noundef nonnull align 8 dereferenceable(16) %0, ptr noundef nonnull align 8 dereferenceable(8) %1) unnamed_addr #1 comdat align 2 {
  %3 = alloca ptr, align 8
  %4 = alloca ptr, align 8
  store ptr %0, ptr %3, align 8
  store ptr %1, ptr %4, align 8
  %5 = load ptr, ptr %3, align 8
  %6 = getelementptr inbounds nuw %"struct.std::_Optional_base.1005", ptr %5, i32 0, i32 0
  %7 = load ptr, ptr %4, align 8
  call void @_ZNSt17_Optional_payloadIPN4llvm8ConstantELb1ELb1ELb1EECI2St22_Optional_payload_baseIS2_EIJRPNS0_14ConstantStructEEEESt10in_place_tDpOT_(ptr noundef nonnull align 8 dereferenceable(9) %6, ptr noundef nonnull align 8 dereferenceable(8) %7)
  ret void
}

; Function Attrs: mustprogress nounwind uwtable
define linkonce_odr hidden void @_ZNSt14_Optional_baseIPN4llvm8ConstantELb1ELb1EEC2IJDnETnNSt9enable_ifIX18is_constructible_vIS2_DpT_EEbE4typeELb0EEESt10in_place_tDpOS6_(ptr noundef nonnull align 8 dereferenceable(16) %0, ptr noundef nonnull align 8 dereferenceable(8) %1) unnamed_addr #1 comdat align 2 {
  %3 = alloca ptr, align 8
  %4 = alloca ptr, align 8
  store ptr %0, ptr %3, align 8
  store ptr %1, ptr %4, align 8
  %5 = load ptr, ptr %3, align 8
  %6 = getelementptr inbounds nuw %"struct.std::_Optional_base.1005", ptr %5, i32 0, i32 0
  %7 = load ptr, ptr %4, align 8
  call void @_ZNSt17_Optional_payloadIPN4llvm8ConstantELb1ELb1ELb1EECI2St22_Optional_payload_baseIS2_EIJDnEEESt10in_place_tDpOT_(ptr noundef nonnull align 8 dereferenceable(9) %6, ptr noundef nonnull align 8 dereferenceable(8) %7)
  ret void
}

; Function Attrs: mustprogress nounwind uwtable
define linkonce_odr hidden void @_ZNSt8optionalIPN4llvm8ConstantEEC2IRPNS0_14ConstantStructETnNSt9enable_ifIX7__and_vISt6__not_ISt7is_sameIS3_NSt9remove_cvINSt16remove_referenceIT_E4typeEE4typeEEES9_ISA_ISt10in_place_tSH_EESt16is_constructibleIS2_JSD_EESt14is_convertibleISD_S2_EEEbE4typeELb1EEEOSD_(ptr noundef nonnull align 8 dereferenceable(16) %0, ptr noundef nonnull align 8 dereferenceable(8) %1) unnamed_addr #1 comdat align 2 {
  %3 = alloca ptr, align 8
  %4 = alloca ptr, align 8
  store ptr %0, ptr %3, align 8
  store ptr %1, ptr %4, align 8
  %5 = load ptr, ptr %3, align 8
  %6 = load ptr, ptr %4, align 8
  call void @_ZNSt14_Optional_baseIPN4llvm8ConstantELb1ELb1EEC2IJRPNS0_14ConstantStructEETnNSt9enable_ifIX18is_constructible_vIS2_DpT_EEbE4typeELb0EEESt10in_place_tDpOS9_(ptr noundef nonnull align 8 dereferenceable(16) %5, ptr noundef nonnull align 8 dereferenceable(8) %6)
  ret void
}

; Function Attrs: mustprogress nounwind uwtable
define linkonce_odr hidden void @_ZNSt8optionalIPN4llvm8ConstantEEC2IDnTnNSt9enable_ifIX7__and_vISt6__not_ISt7is_sameIS3_NSt9remove_cvINSt16remove_referenceIT_E4typeEE4typeEEES6_IS7_ISt10in_place_tSE_EESt16is_constructibleIS2_JSA_EESt14is_convertibleISA_S2_EEEbE4typeELb1EEEOSA_(ptr noundef nonnull align 8 dereferenceable(16) %0, ptr noundef nonnull align 8 dereferenceable(8) %1) unnamed_addr #1 comdat align 2 {
  %3 = alloca ptr, align 8
  %4 = alloca ptr, align 8
  store ptr %0, ptr %3, align 8
  store ptr %1, ptr %4, align 8
  %5 = load ptr, ptr %3, align 8
  %6 = load ptr, ptr %4, align 8
  call void @_ZNSt14_Optional_baseIPN4llvm8ConstantELb1ELb1EEC2IJDnETnNSt9enable_ifIX18is_constructible_vIS2_DpT_EEbE4typeELb0EEESt10in_place_tDpOS6_(ptr noundef nonnull align 8 dereferenceable(16) %5, ptr noundef nonnull align 8 dereferenceable(8) %6)
  ret void
}

; Function Attrs: mustprogress nounwind uwtable
define internal { ptr, i8 } @_ZZN12_GLOBAL__N_120AAKernelInfoFunction10initializeERN4llvm10AttributorEENKUlRKNS1_14GlobalVariableEPKNS1_17AbstractAttributeERbE_clES6_S9_SA_(ptr noundef nonnull align 8 dereferenceable(16) %0, ptr noundef nonnull align 8 dereferenceable(81) %1, ptr noundef %2, ptr noundef nonnull align 1 dereferenceable(1) %3) #1 align 2 {
  %5 = alloca %"class.std::optional.1004", align 8
  %6 = alloca ptr, align 8
  %7 = alloca ptr, align 8
  %8 = alloca ptr, align 8
  %9 = alloca ptr, align 8
  %10 = alloca ptr, align 8
  store ptr %0, ptr %6, align 8
  store ptr %1, ptr %7, align 8
  store ptr %2, ptr %8, align 8
  store ptr %3, ptr %9, align 8
  %11 = load ptr, ptr %6, align 8
  %12 = getelementptr inbounds nuw %class.anon.990, ptr %11, i32 0, i32 0
  %13 = load ptr, ptr %12, align 8
  %14 = getelementptr inbounds i8, ptr %13, i64 80
  %15 = load ptr, ptr %14, align 8
  %16 = getelementptr inbounds ptr, ptr %15, i64 3
  %17 = load ptr, ptr %16, align 8
  %18 = call noundef zeroext i1 %17(ptr noundef nonnull align 8 dereferenceable(337) %14)
  br i1 %18, label %28, label %19

19:                                               ; preds = %4
  %20 = load ptr, ptr %8, align 8
  %21 = icmp ne ptr %20, null
  br i1 %21, label %23, label %22

22:                                               ; preds = %19
  store ptr null, ptr %10, align 8
  call void @_ZNSt8optionalIPN4llvm8ConstantEEC2IDnTnNSt9enable_ifIX7__and_vISt6__not_ISt7is_sameIS3_NSt9remove_cvINSt16remove_referenceIT_E4typeEE4typeEEES6_IS7_ISt10in_place_tSE_EESt16is_constructibleIS2_JSA_EESt14is_convertibleISA_S2_EEEbE4typeELb1EEEOSA_(ptr noundef nonnull align 8 dereferenceable(16) %5, ptr noundef nonnull align 8 dereferenceable(8) %10) #2
  br label %31

23:                                               ; preds = %19
  %24 = load ptr, ptr %9, align 8
  store i8 1, ptr %24, align 1
  %25 = getelementptr inbounds nuw %class.anon.990, ptr %11, i32 0, i32 1
  %26 = load ptr, ptr %25, align 8
  %27 = load ptr, ptr %8, align 8
  call void @_ZN4llvm10Attributor16recordDependenceERKNS_17AbstractAttributeES3_NS_10DepClassTyE(ptr noundef nonnull align 8 dereferenceable(4296) %26, ptr noundef nonnull align 8 dereferenceable(80) %13, ptr noundef nonnull align 8 dereferenceable(80) %27, i32 noundef 1)
  br label %28

28:                                               ; preds = %23, %4
  %29 = getelementptr inbounds i8, ptr %13, i64 80
  %30 = getelementptr inbounds nuw %"struct.(anonymous namespace)::KernelInfoState", ptr %29, i32 0, i32 7
  call void @_ZNSt8optionalIPN4llvm8ConstantEEC2IRPNS0_14ConstantStructETnNSt9enable_ifIX7__and_vISt6__not_ISt7is_sameIS3_NSt9remove_cvINSt16remove_referenceIT_E4typeEE4typeEEES9_ISA_ISt10in_place_tSH_EESt16is_constructibleIS2_JSD_EESt14is_convertibleISD_S2_EEEbE4typeELb1EEEOSD_(ptr noundef nonnull align 8 dereferenceable(16) %5, ptr noundef nonnull align 8 dereferenceable(8) %30) #2
  br label %31

31:                                               ; preds = %28, %22
  %32 = getelementptr inbounds nuw %"class.std::optional.1004", ptr %5, i32 0, i32 0
  %33 = getelementptr inbounds nuw %"struct.std::_Optional_base.1005", ptr %32, i32 0, i32 0
  %34 = load { ptr, i8 }, ptr %33, align 8
  ret { ptr, i8 } %34
}

; Function Attrs: mustprogress nounwind uwtable
define linkonce_odr hidden noundef ptr @_ZNKSt9_Any_data9_M_accessEv(ptr noundef nonnull align 8 dereferenceable(16) %0) #1 comdat align 2 {
  %2 = alloca ptr, align 8
  store ptr %0, ptr %2, align 8
  %3 = load ptr, ptr %2, align 8
  %4 = getelementptr inbounds [16 x i8], ptr %3, i64 0, i64 0
  ret ptr %4
}

; Function Attrs: mustprogress nounwind uwtable
define internal { ptr, i8 } @_ZSt13__invoke_implISt8optionalIPN4llvm8ConstantEERZN12_GLOBAL__N_120AAKernelInfoFunction10initializeERNS1_10AttributorEEUlRKNS1_14GlobalVariableEPKNS1_17AbstractAttributeERbE_JSB_SE_SF_EET_St14__invoke_otherOT0_DpOT1_(ptr noundef nonnull align 8 dereferenceable(16) %0, ptr noundef nonnull align 8 dereferenceable(81) %1, ptr noundef nonnull align 8 dereferenceable(8) %2, ptr noundef nonnull align 1 dereferenceable(1) %3) #1 {
  %5 = alloca %"class.std::optional.1004", align 8
  %6 = alloca ptr, align 8
  %7 = alloca ptr, align 8
  %8 = alloca ptr, align 8
  %9 = alloca ptr, align 8
  store ptr %0, ptr %6, align 8
  store ptr %1, ptr %7, align 8
  store ptr %2, ptr %8, align 8
  store ptr %3, ptr %9, align 8
  %10 = load ptr, ptr %6, align 8
  %11 = load ptr, ptr %7, align 8
  %12 = load ptr, ptr %8, align 8
  %13 = load ptr, ptr %12, align 8
  %14 = load ptr, ptr %9, align 8
  %15 = call { ptr, i8 } @_ZZN12_GLOBAL__N_120AAKernelInfoFunction10initializeERN4llvm10AttributorEENKUlRKNS1_14GlobalVariableEPKNS1_17AbstractAttributeERbE_clES6_S9_SA_(ptr noundef nonnull align 8 dereferenceable(16) %10, ptr noundef nonnull align 8 dereferenceable(81) %11, ptr noundef %13, ptr noundef nonnull align 1 dereferenceable(1) %14)
  %16 = getelementptr inbounds nuw %"class.std::optional.1004", ptr %5, i32 0, i32 0
  %17 = getelementptr inbounds nuw %"struct.std::_Optional_base.1005", ptr %16, i32 0, i32 0
  %18 = getelementptr inbounds nuw { ptr, i8 }, ptr %17, i32 0, i32 0
  %19 = extractvalue { ptr, i8 } %15, 0
  store ptr %19, ptr %18, align 8
  %20 = getelementptr inbounds nuw { ptr, i8 }, ptr %17, i32 0, i32 1
  %21 = extractvalue { ptr, i8 } %15, 1
  store i8 %21, ptr %20, align 8
  %22 = getelementptr inbounds nuw %"class.std::optional.1004", ptr %5, i32 0, i32 0
  %23 = getelementptr inbounds nuw %"struct.std::_Optional_base.1005", ptr %22, i32 0, i32 0
  %24 = load { ptr, i8 }, ptr %23, align 8
  ret { ptr, i8 } %24
}

; Function Attrs: mustprogress nounwind uwtable
define internal noundef nonnull align 8 dereferenceable(16) ptr @_ZNKSt9_Any_data9_M_accessIZN12_GLOBAL__N_120AAKernelInfoFunction10initializeERN4llvm10AttributorEEUlRKNS3_14GlobalVariableEPKNS3_17AbstractAttributeERbE_EERKT_v(ptr noundef nonnull align 8 dereferenceable(16) %0) #1 align 2 {
  %2 = alloca ptr, align 8
  store ptr %0, ptr %2, align 8
  %3 = load ptr, ptr %2, align 8
  %4 = call noundef ptr @_ZNKSt9_Any_data9_M_accessEv(ptr noundef nonnull align 8 dereferenceable(16) %3) #2
  ret ptr %4
}

; Function Attrs: mustprogress nounwind uwtable
define internal { ptr, i8 } @_ZSt10__invoke_rISt8optionalIPN4llvm8ConstantEERZN12_GLOBAL__N_120AAKernelInfoFunction10initializeERNS1_10AttributorEEUlRKNS1_14GlobalVariableEPKNS1_17AbstractAttributeERbE_JSB_SE_SF_EENSt9enable_ifIX16is_invocable_r_vIT_T0_DpT1_EESJ_E4typeEOSK_DpOSL_(ptr noundef nonnull align 8 dereferenceable(16) %0, ptr noundef nonnull align 8 dereferenceable(81) %1, ptr noundef nonnull align 8 dereferenceable(8) %2, ptr noundef nonnull align 1 dereferenceable(1) %3) #1 {
  %5 = alloca %"class.std::optional.1004", align 8
  %6 = alloca ptr, align 8
  %7 = alloca ptr, align 8
  %8 = alloca ptr, align 8
  %9 = alloca ptr, align 8
  store ptr %0, ptr %6, align 8
  store ptr %1, ptr %7, align 8
  store ptr %2, ptr %8, align 8
  store ptr %3, ptr %9, align 8
  %10 = load ptr, ptr %6, align 8
  %11 = load ptr, ptr %7, align 8
  %12 = load ptr, ptr %8, align 8
  %13 = load ptr, ptr %9, align 8
  %14 = call { ptr, i8 } @_ZSt13__invoke_implISt8optionalIPN4llvm8ConstantEERZN12_GLOBAL__N_120AAKernelInfoFunction10initializeERNS1_10AttributorEEUlRKNS1_14GlobalVariableEPKNS1_17AbstractAttributeERbE_JSB_SE_SF_EET_St14__invoke_otherOT0_DpOT1_(ptr noundef nonnull align 8 dereferenceable(16) %10, ptr noundef nonnull align 8 dereferenceable(81) %11, ptr noundef nonnull align 8 dereferenceable(8) %12, ptr noundef nonnull align 1 dereferenceable(1) %13)
  %15 = getelementptr inbounds nuw %"class.std::optional.1004", ptr %5, i32 0, i32 0
  %16 = getelementptr inbounds nuw %"struct.std::_Optional_base.1005", ptr %15, i32 0, i32 0
  %17 = getelementptr inbounds nuw { ptr, i8 }, ptr %16, i32 0, i32 0
  %18 = extractvalue { ptr, i8 } %14, 0
  store ptr %18, ptr %17, align 8
  %19 = getelementptr inbounds nuw { ptr, i8 }, ptr %16, i32 0, i32 1
  %20 = extractvalue { ptr, i8 } %14, 1
  store i8 %20, ptr %19, align 8
  %21 = getelementptr inbounds nuw %"class.std::optional.1004", ptr %5, i32 0, i32 0
  %22 = getelementptr inbounds nuw %"struct.std::_Optional_base.1005", ptr %21, i32 0, i32 0
  %23 = load { ptr, i8 }, ptr %22, align 8
  ret { ptr, i8 } %23
}

; Function Attrs: mustprogress nounwind uwtable
define internal noundef ptr @_ZNSt14_Function_base13_Base_managerIZN12_GLOBAL__N_120AAKernelInfoFunction10initializeERN4llvm10AttributorEEUlRKNS3_14GlobalVariableEPKNS3_17AbstractAttributeERbE_E14_M_get_pointerERKSt9_Any_data(ptr noundef nonnull align 8 dereferenceable(16) %0) #1 align 2 {
  %2 = alloca ptr, align 8
  %3 = alloca ptr, align 8
  store ptr %0, ptr %2, align 8
  %4 = load ptr, ptr %2, align 8
  %5 = call noundef nonnull align 8 dereferenceable(16) ptr @_ZNKSt9_Any_data9_M_accessIZN12_GLOBAL__N_120AAKernelInfoFunction10initializeERN4llvm10AttributorEEUlRKNS3_14GlobalVariableEPKNS3_17AbstractAttributeERbE_EERKT_v(ptr noundef nonnull align 8 dereferenceable(16) %4) #2
  store ptr %5, ptr %3, align 8
  %6 = load ptr, ptr %3, align 8
  ret ptr %6
}

; Function Attrs: mustprogress nounwind uwtable
define internal { ptr, i8 } @_ZNSt17_Function_handlerIFSt8optionalIPN4llvm8ConstantEERKNS1_14GlobalVariableEPKNS1_17AbstractAttributeERbEZN12_GLOBAL__N_120AAKernelInfoFunction10initializeERNS1_10AttributorEEUlS7_SA_SB_E_E9_M_invokeERKSt9_Any_dataS7_OSA_SB_(ptr noundef nonnull align 8 dereferenceable(16) %0, ptr noundef nonnull align 8 dereferenceable(81) %1, ptr noundef nonnull align 8 dereferenceable(8) %2, ptr noundef nonnull align 1 dereferenceable(1) %3) #1 align 2 {
  %5 = alloca %"class.std::optional.1004", align 8
  %6 = alloca ptr, align 8
  %7 = alloca ptr, align 8
  %8 = alloca ptr, align 8
  %9 = alloca ptr, align 8
  store ptr %0, ptr %6, align 8
  store ptr %1, ptr %7, align 8
  store ptr %2, ptr %8, align 8
  store ptr %3, ptr %9, align 8
  %10 = load ptr, ptr %6, align 8
  %11 = call noundef ptr @_ZNSt14_Function_base13_Base_managerIZN12_GLOBAL__N_120AAKernelInfoFunction10initializeERN4llvm10AttributorEEUlRKNS3_14GlobalVariableEPKNS3_17AbstractAttributeERbE_E14_M_get_pointerERKSt9_Any_data(ptr noundef nonnull align 8 dereferenceable(16) %10) #2
  %12 = load ptr, ptr %7, align 8
  %13 = load ptr, ptr %8, align 8
  %14 = load ptr, ptr %9, align 8
  %15 = call { ptr, i8 } @_ZSt10__invoke_rISt8optionalIPN4llvm8ConstantEERZN12_GLOBAL__N_120AAKernelInfoFunction10initializeERNS1_10AttributorEEUlRKNS1_14GlobalVariableEPKNS1_17AbstractAttributeERbE_JSB_SE_SF_EENSt9enable_ifIX16is_invocable_r_vIT_T0_DpT1_EESJ_E4typeEOSK_DpOSL_(ptr noundef nonnull align 8 dereferenceable(16) %11, ptr noundef nonnull align 8 dereferenceable(81) %12, ptr noundef nonnull align 8 dereferenceable(8) %13, ptr noundef nonnull align 1 dereferenceable(1) %14)
  %16 = getelementptr inbounds nuw %"class.std::optional.1004", ptr %5, i32 0, i32 0
  %17 = getelementptr inbounds nuw %"struct.std::_Optional_base.1005", ptr %16, i32 0, i32 0
  %18 = getelementptr inbounds nuw { ptr, i8 }, ptr %17, i32 0, i32 0
  %19 = extractvalue { ptr, i8 } %15, 0
  store ptr %19, ptr %18, align 8
  %20 = getelementptr inbounds nuw { ptr, i8 }, ptr %17, i32 0, i32 1
  %21 = extractvalue { ptr, i8 } %15, 1
  store i8 %21, ptr %20, align 8
  %22 = getelementptr inbounds nuw %"class.std::optional.1004", ptr %5, i32 0, i32 0
  %23 = getelementptr inbounds nuw %"struct.std::_Optional_base.1005", ptr %22, i32 0, i32 0
  %24 = load { ptr, i8 }, ptr %23, align 8
  ret { ptr, i8 } %24
}