; Function Attrs: mustprogress nounwind uwtable
define internal { ptr, i8 } @_ZNSt17_Function_handlerIFSt8optionalIPN4llvm8ConstantEERKNS1_14GlobalVariableEPKNS1_17AbstractAttributeERbEZN12_GLOBAL__N_120AAKernelInfoFunction10initializeERNS1_10AttributorEEUlS7_SA_SB_E_E9_M_invokeERKSt9_Any_dataS7_OSA_SB_(ptr nocapture noundef nonnull readonly align 8 dereferenceable(16) %0, ptr nocapture nonnull readnone align 8 %1, ptr nocapture noundef nonnull readonly align 8 dereferenceable(8) %2, ptr nocapture noundef nonnull writeonly align 1 dereferenceable(1) %3) #0 align 2 {
  %.val = load ptr, ptr %2, align 8
  %5 = load ptr, ptr %0, align 8
  %6 = getelementptr inbounds i8, ptr %5, i64 80
  %7 = load ptr, ptr %6, align 8
  %8 = getelementptr inbounds i8, ptr %7, i64 24
  %9 = load ptr, ptr %8, align 8
  %10 = tail call noundef zeroext i1 %9(ptr noundef nonnull align 8 dereferenceable(337) %6) #26
  br i1 %10, label %15, label %11

11:                                               ; preds = %4
  %.not.i.i.i = icmp eq ptr %.val, null
  br i1 %.not.i.i.i, label %_ZSt10__invoke_rISt8optionalIPN4llvm8ConstantEERZN12_GLOBAL__N_120AAKernelInfoFunction10initializeERNS1_10AttributorEEUlRKNS1_14GlobalVariableEPKNS1_17AbstractAttributeERbE_JSB_SE_SF_EENSt9enable_ifIX16is_invocable_r_vIT_T0_DpT1_EESJ_E4typeEOSK_DpOSL_.exit, label %12

12:                                               ; preds = %11
  store i8 1, ptr %3, align 1
  %13 = getelementptr inbounds nuw i8, ptr %0, i64 8
  %14 = load ptr, ptr %13, align 8
  tail call void @_ZN4llvm10Attributor16recordDependenceERKNS_17AbstractAttributeES3_NS_10DepClassTyE(ptr noundef nonnull align 8 dereferenceable(4296) %14, ptr noundef nonnull align 8 dereferenceable(80) %5, ptr noundef nonnull align 8 dereferenceable(80) %.val, i32 noundef 1) #26
  br label %15

15:                                               ; preds = %12, %4
  %16 = getelementptr inbounds i8, ptr %5, i64 272
  %17 = load ptr, ptr %16, align 8
  br label %_ZSt10__invoke_rISt8optionalIPN4llvm8ConstantEERZN12_GLOBAL__N_120AAKernelInfoFunction10initializeERNS1_10AttributorEEUlRKNS1_14GlobalVariableEPKNS1_17AbstractAttributeERbE_JSB_SE_SF_EENSt9enable_ifIX16is_invocable_r_vIT_T0_DpT1_EESJ_E4typeEOSK_DpOSL_.exit

_ZSt10__invoke_rISt8optionalIPN4llvm8ConstantEERZN12_GLOBAL__N_120AAKernelInfoFunction10initializeERNS1_10AttributorEEUlRKNS1_14GlobalVariableEPKNS1_17AbstractAttributeERbE_JSB_SE_SF_EENSt9enable_ifIX16is_invocable_r_vIT_T0_DpT1_EESJ_E4typeEOSK_DpOSL_.exit: ; preds = %11, %15
  %.sroa.0.0.i.i.i = phi ptr [ %17, %15 ], [ null, %11 ]
  %.fca.0.insert.i.i.i = insertvalue { ptr, i8 } poison, ptr %.sroa.0.0.i.i.i, 0
  %.fca.1.insert.i.i.i = insertvalue { ptr, i8 } %.fca.0.insert.i.i.i, i8 1, 1
  ret { ptr, i8 } %.fca.1.insert.i.i.i
}